target datalayout = "e-m:e-p270:32:32-p271:32:32-p272:64:64-i64:64-i128:128-f80:128-n8:16:32:64-S128"
target triple = "x86_64-pc-linux-gnu"

%struct.quic_sstream_st = type { %struct.ring_buf, %struct.ossl_list_st_uint_set, %struct.ossl_list_st_uint_set, i8 }
%struct.ring_buf = type { ptr, i64, i64, i64 }
%struct.ossl_list_st_uint_set = type { ptr, ptr, i64 }

@.str = private unnamed_addr constant [35 x i8] c"../openssl/ssl/quic/quic_sstream.c\00", align 1
@.str.1 = private unnamed_addr constant [39 x i8] c"../openssl/include/internal/ring_buf.h\00", align 1

; Function Attrs: inlinehint nounwind uwtable
define internal void @ring_buf_destroy(ptr noundef %0, i32 noundef %1) #3 {
  %3 = alloca ptr, align 8
  %4 = alloca i32, align 4
  store ptr %0, ptr %3, align 8, !tbaa !10
  store i32 %1, ptr %4, align 4, !tbaa !17
  %5 = load i32, ptr %4, align 4, !tbaa !17
  %6 = icmp ne i32 %5, 0
  br i1 %6, label %7, label %14

7:                                                ; preds = %2
  %8 = load ptr, ptr %3, align 8, !tbaa !10
  %9 = getelementptr inbounds nuw %struct.ring_buf, ptr %8, i32 0, i32 0
  %10 = load ptr, ptr %9, align 8, !tbaa !12
  %11 = load ptr, ptr %3, align 8, !tbaa !10
  %12 = getelementptr inbounds nuw %struct.ring_buf, ptr %11, i32 0, i32 1
  %13 = load i64, ptr %12, align 8, !tbaa !14
  call void @CRYPTO_clear_free(ptr noundef %10, i64 noundef %13, ptr noundef @.str.1, i32 noundef 58)
  br label %18

14:                                               ; preds = %2
  %15 = load ptr, ptr %3, align 8, !tbaa !10
  %16 = getelementptr inbounds nuw %struct.ring_buf, ptr %15, i32 0, i32 0
  %17 = load ptr, ptr %16, align 8, !tbaa !12
  call void @CRYPTO_free(ptr noundef %17, ptr noundef @.str.1, i32 noundef 60)
  br label %18

18:                                               ; preds = %14, %7
  %19 = load ptr, ptr %3, align 8, !tbaa !10
  %20 = getelementptr inbounds nuw %struct.ring_buf, ptr %19, i32 0, i32 0
  store ptr null, ptr %20, align 8, !tbaa !12
  %21 = load ptr, ptr %3, align 8, !tbaa !10
  %22 = getelementptr inbounds nuw %struct.ring_buf, ptr %21, i32 0, i32 1
  store i64 0, ptr %22, align 8, !tbaa !14
  ret void
}

; Function Attrs: nounwind uwtable
define void @ossl_quic_sstream_free(ptr noundef %0) #0 {
  %2 = alloca ptr, align 8
  store ptr %0, ptr %2, align 8, !tbaa !7
  %3 = load ptr, ptr %2, align 8, !tbaa !7
  %4 = icmp eq ptr %3, null
  br i1 %4, label %5, label %6

5:                                                ; preds = %1
  br label %20

6:                                                ; preds = %1
  %7 = load ptr, ptr %2, align 8, !tbaa !7
  %8 = getelementptr inbounds nuw %struct.quic_sstream_st, ptr %7, i32 0, i32 1
  call void @ossl_uint_set_destroy(ptr noundef %8)
  %9 = load ptr, ptr %2, align 8, !tbaa !7
  %10 = getelementptr inbounds nuw %struct.quic_sstream_st, ptr %9, i32 0, i32 2
  call void @ossl_uint_set_destroy(ptr noundef %10)
  %11 = load ptr, ptr %2, align 8, !tbaa !7
  %12 = getelementptr inbounds nuw %struct.quic_sstream_st, ptr %11, i32 0, i32 0
  %13 = load ptr, ptr %2, align 8, !tbaa !7
  %14 = getelementptr inbounds nuw %struct.quic_sstream_st, ptr %13, i32 0, i32 3
  %15 = load i8, ptr %14, align 8
  %16 = lshr i8 %15, 3
  %17 = and i8 %16, 1
  %18 = zext i8 %17 to i32
  call void @ring_buf_destroy(ptr noundef %12, i32 noundef %18)
  %19 = load ptr, ptr %2, align 8, !tbaa !7
  call void @CRYPTO_free(ptr noundef %19, ptr noundef @.str, i32 noundef 88)
  br label %20

20:                                               ; preds = %6, %5
  ret void
}