; Function Attrs: nounwind uwtable
define void @ossl_quic_sstream_free(ptr noundef %0) local_unnamed_addr #0 {
  %2 = icmp eq ptr %0, null
  br i1 %2, label %14, label %3

3:                                                ; preds = %1
  %4 = getelementptr inbounds nuw i8, ptr %0, i64 32
  tail call void @ossl_uint_set_destroy(ptr noundef nonnull %4) #12
  %5 = getelementptr inbounds nuw i8, ptr %0, i64 56
  tail call void @ossl_uint_set_destroy(ptr noundef nonnull %5) #12
  %6 = getelementptr inbounds nuw i8, ptr %0, i64 80
  %7 = load i8, ptr %6, align 8
  %8 = and i8 %7, 8
  %.not.i = icmp eq i8 %8, 0
  %9 = load ptr, ptr %0, align 8, !tbaa !3
  br i1 %.not.i, label %13, label %10

10:                                               ; preds = %3
  %11 = getelementptr inbounds nuw i8, ptr %0, i64 8
  %12 = load i64, ptr %11, align 8, !tbaa !9
  tail call void @CRYPTO_clear_free(ptr noundef %9, i64 noundef %12, ptr noundef nonnull @.str.1, i32 noundef 58) #12
  br label %ring_buf_destroy.exit

13:                                               ; preds = %3
  tail call void @CRYPTO_free(ptr noundef %9, ptr noundef nonnull @.str.1, i32 noundef 60) #12
  br label %ring_buf_destroy.exit

ring_buf_destroy.exit:                            ; preds = %10, %13
  tail call void @llvm.memset.p0.i64(ptr noundef nonnull align 8 dereferenceable(16) %0, i8 0, i64 16, i1 false)
  tail call void @CRYPTO_free(ptr noundef nonnull %0, ptr noundef nonnull @.str, i32 noundef 88) #12
  br label %14

14:                                               ; preds = %1, %ring_buf_destroy.exit
  ret void
}